target datalayout = "e-m:e-p270:32:32-p271:32:32-p272:64:64-i64:64-i128:128-f80:128-n8:16:32:64-S128"
target triple = "x86_64-pc-linux-gnu"

%struct.FunctionCallInfoBaseData = type { ptr, ptr, ptr, i32, i8, i16, [0 x %struct.NullableDatum] }
%struct.NullableDatum = type { i64, i8 }
%struct.FmgrInfo = type { ptr, i32, i16, i8, i8, i8, ptr, ptr, ptr }
%struct.FuncCallContext = type { i64, i64, ptr, ptr, ptr, ptr }
%struct.ReturnSetInfo = type { i32, ptr, ptr, i32, i32, i32, ptr, ptr }
%struct.LocalPgBackendStatus = type { %struct.PgBackendStatus, i32, i32, i32, i32, i8 }
%struct.PgBackendStatus = type { i32, i32, i32, i64, i64, i64, i64, i32, i32, %struct.SockAddr, ptr, i8, ptr, i8, ptr, i32, ptr, ptr, i32, i32, [20 x i64], i64 }
%struct.SockAddr = type { %struct.sockaddr_storage, i32 }
%struct.sockaddr_storage = type { i16, [118 x i8], i64 }

; Function Attrs: inlinehint nounwind uwtable
define internal i64 @Int32GetDatum(i32 noundef %0) #2 {
  %2 = alloca i32, align 4
  store i32 %0, ptr %2, align 4
  %3 = load i32, ptr %2, align 4
  %4 = sext i32 %3 to i64
  ret i64 %4
}

; Function Attrs: nounwind uwtable
define dso_local i64 @pg_stat_get_backend_idset(ptr noundef %0) #0 {
  %2 = alloca i64, align 8
  %3 = alloca ptr, align 8
  %4 = alloca ptr, align 8
  %5 = alloca ptr, align 8
  %6 = alloca ptr, align 8
  %7 = alloca ptr, align 8
  %8 = alloca i32, align 4
  %9 = alloca ptr, align 8
  store ptr %0, ptr %3, align 8
  call void @llvm.lifetime.start.p0(i64 8, ptr %4) #10
  call void @llvm.lifetime.start.p0(i64 8, ptr %5) #10
  %10 = load ptr, ptr %3, align 8
  %11 = getelementptr inbounds nuw %struct.FunctionCallInfoBaseData, ptr %10, i32 0, i32 0
  %12 = load ptr, ptr %11, align 8
  %13 = getelementptr inbounds nuw %struct.FmgrInfo, ptr %12, i32 0, i32 6
  %14 = load ptr, ptr %13, align 8
  %15 = icmp eq ptr %14, null
  br i1 %15, label %16, label %28

16:                                               ; preds = %1
  %17 = load ptr, ptr %3, align 8
  %18 = call ptr @init_MultiFuncCall(ptr noundef %17)
  store ptr %18, ptr %4, align 8
  %19 = load ptr, ptr %4, align 8
  %20 = getelementptr inbounds nuw %struct.FuncCallContext, ptr %19, i32 0, i32 4
  %21 = load ptr, ptr %20, align 8
  %22 = call ptr @MemoryContextAlloc(ptr noundef %21, i64 noundef 4)
  store ptr %22, ptr %5, align 8
  %23 = load ptr, ptr %5, align 8
  %24 = load ptr, ptr %4, align 8
  %25 = getelementptr inbounds nuw %struct.FuncCallContext, ptr %24, i32 0, i32 2
  store ptr %23, ptr %25, align 8
  %26 = load ptr, ptr %5, align 8
  %27 = getelementptr inbounds i32, ptr %26, i64 0
  store i32 0, ptr %27, align 4
  br label %28

28:                                               ; preds = %16, %1
  %29 = load ptr, ptr %3, align 8
  %30 = call ptr @per_MultiFuncCall(ptr noundef %29)
  store ptr %30, ptr %4, align 8
  %31 = load ptr, ptr %4, align 8
  %32 = getelementptr inbounds nuw %struct.FuncCallContext, ptr %31, i32 0, i32 2
  %33 = load ptr, ptr %32, align 8
  store ptr %33, ptr %5, align 8
  %34 = load ptr, ptr %5, align 8
  %35 = getelementptr inbounds i32, ptr %34, i64 0
  %36 = load i32, ptr %35, align 4
  %37 = add i32 %36, 1
  store i32 %37, ptr %35, align 4
  %38 = load ptr, ptr %5, align 8
  %39 = getelementptr inbounds i32, ptr %38, i64 0
  %40 = load i32, ptr %39, align 4
  %41 = call i32 @pgstat_fetch_stat_numbackends()
  %42 = icmp sle i32 %40, %41
  br i1 %42, label %43, label %67

43:                                               ; preds = %28
  call void @llvm.lifetime.start.p0(i64 8, ptr %6) #10
  %44 = load ptr, ptr %5, align 8
  %45 = getelementptr inbounds i32, ptr %44, i64 0
  %46 = load i32, ptr %45, align 4
  %47 = call ptr @pgstat_get_local_beentry_by_index(i32 noundef %46)
  store ptr %47, ptr %6, align 8
  br label %48

48:                                               ; preds = %43
  call void @llvm.lifetime.start.p0(i64 8, ptr %7) #10
  %49 = load ptr, ptr %4, align 8
  %50 = getelementptr inbounds nuw %struct.FuncCallContext, ptr %49, i32 0, i32 0
  %51 = load i64, ptr %50, align 8
  %52 = add i64 %51, 1
  store i64 %52, ptr %50, align 8
  %53 = load ptr, ptr %3, align 8
  %54 = getelementptr inbounds nuw %struct.FunctionCallInfoBaseData, ptr %53, i32 0, i32 2
  %55 = load ptr, ptr %54, align 8
  store ptr %55, ptr %7, align 8
  %56 = load ptr, ptr %7, align 8
  %57 = getelementptr inbounds nuw %struct.ReturnSetInfo, ptr %56, i32 0, i32 5
  store i32 1, ptr %57, align 8
  %58 = load ptr, ptr %6, align 8
  %59 = getelementptr inbounds nuw %struct.LocalPgBackendStatus, ptr %58, i32 0, i32 1
  %60 = load i32, ptr %59, align 8
  %61 = call i64 @Int32GetDatum(i32 noundef %60)
  store i64 %61, ptr %2, align 8
  store i32 1, ptr %8, align 4
  call void @llvm.lifetime.end.p0(i64 8, ptr %7) #10
  br label %64

62:                                               ; No predecessors!
  br label %63

63:                                               ; preds = %62
  store i32 0, ptr %8, align 4
  br label %64

64:                                               ; preds = %63, %48
  call void @llvm.lifetime.end.p0(i64 8, ptr %6) #10
  %65 = load i32, ptr %8, align 4
  switch i32 %65, label %87 [
    i32 0, label %66
  ]

66:                                               ; preds = %64
  br label %86

67:                                               ; preds = %28
  br label %68

68:                                               ; preds = %67
  call void @llvm.lifetime.start.p0(i64 8, ptr %9) #10
  %69 = load ptr, ptr %3, align 8
  %70 = load ptr, ptr %4, align 8
  call void @end_MultiFuncCall(ptr noundef %69, ptr noundef %70)
  %71 = load ptr, ptr %3, align 8
  %72 = getelementptr inbounds nuw %struct.FunctionCallInfoBaseData, ptr %71, i32 0, i32 2
  %73 = load ptr, ptr %72, align 8
  store ptr %73, ptr %9, align 8
  %74 = load ptr, ptr %9, align 8
  %75 = getelementptr inbounds nuw %struct.ReturnSetInfo, ptr %74, i32 0, i32 5
  store i32 2, ptr %75, align 8
  br label %76

76:                                               ; preds = %68
  %77 = load ptr, ptr %3, align 8
  %78 = getelementptr inbounds nuw %struct.FunctionCallInfoBaseData, ptr %77, i32 0, i32 4
  store i8 1, ptr %78, align 4
  store i64 0, ptr %2, align 8
  store i32 1, ptr %8, align 4
  br label %81

79:                                               ; No predecessors!
  br label %80

80:                                               ; preds = %79
  store i32 0, ptr %8, align 4
  br label %81

81:                                               ; preds = %80, %76
  call void @llvm.lifetime.end.p0(i64 8, ptr %9) #10
  %82 = load i32, ptr %8, align 4
  switch i32 %82, label %87 [
    i32 0, label %83
  ]

83:                                               ; preds = %81
  br label %84

84:                                               ; preds = %83
  br label %85

85:                                               ; preds = %84
  br label %86

86:                                               ; preds = %85, %66
  store i32 0, ptr %8, align 4
  br label %87

87:                                               ; preds = %86, %81, %64
  call void @llvm.lifetime.end.p0(i64 8, ptr %5) #10
  call void @llvm.lifetime.end.p0(i64 8, ptr %4) #10
  %88 = load i32, ptr %8, align 4
  switch i32 %88, label %91 [
    i32 0, label %89
    i32 1, label %89
  ]

89:                                               ; preds = %87, %87
  %90 = load i64, ptr %2, align 8
  ret i64 %90

91:                                               ; preds = %87
  unreachable
}