; Function Attrs: nounwind uwtable
define dso_local range(i64 -2147483648, 2147483648) i64 @pg_stat_get_backend_idset(ptr noundef %0) local_unnamed_addr #0 {
  %2 = load ptr, ptr %0, align 8
  %3 = getelementptr inbounds nuw i8, ptr %2, i64 24
  %4 = load ptr, ptr %3, align 8
  %5 = icmp eq ptr %4, null
  br i1 %5, label %6, label %12

6:                                                ; preds = %1
  %7 = tail call ptr @init_MultiFuncCall(ptr noundef nonnull %0) #9
  %8 = getelementptr inbounds nuw i8, ptr %7, i64 32
  %9 = load ptr, ptr %8, align 8
  %10 = tail call ptr @MemoryContextAlloc(ptr noundef %9, i64 noundef 4) #9
  %11 = getelementptr inbounds nuw i8, ptr %7, i64 16
  store ptr %10, ptr %11, align 8
  store i32 0, ptr %10, align 4
  br label %12

12:                                               ; preds = %6, %1
  %13 = tail call ptr @per_MultiFuncCall(ptr noundef nonnull %0) #9
  %14 = getelementptr inbounds nuw i8, ptr %13, i64 16
  %15 = load ptr, ptr %14, align 8
  %16 = load i32, ptr %15, align 4
  %17 = add i32 %16, 1
  store i32 %17, ptr %15, align 4
  %18 = tail call i32 @pgstat_fetch_stat_numbackends() #9
  %.not = icmp sgt i32 %17, %18
  br i1 %.not, label %30, label %19

19:                                               ; preds = %12
  %20 = load i32, ptr %15, align 4
  %21 = tail call ptr @pgstat_get_local_beentry_by_index(i32 noundef %20) #9
  %22 = load i64, ptr %13, align 8
  %23 = add i64 %22, 1
  store i64 %23, ptr %13, align 8
  %24 = getelementptr inbounds nuw i8, ptr %0, i64 16
  %25 = load ptr, ptr %24, align 8
  %26 = getelementptr inbounds nuw i8, ptr %25, i64 32
  store i32 1, ptr %26, align 8
  %27 = getelementptr inbounds nuw i8, ptr %21, i64 432
  %28 = load i32, ptr %27, align 8
  %29 = sext i32 %28 to i64
  br label %35

30:                                               ; preds = %12
  tail call void @end_MultiFuncCall(ptr noundef nonnull %0, ptr noundef nonnull %13) #9
  %31 = getelementptr inbounds nuw i8, ptr %0, i64 16
  %32 = load ptr, ptr %31, align 8
  %33 = getelementptr inbounds nuw i8, ptr %32, i64 32
  store i32 2, ptr %33, align 8
  %34 = getelementptr inbounds nuw i8, ptr %0, i64 28
  store i8 1, ptr %34, align 4
  br label %35

35:                                               ; preds = %30, %19
  %.0 = phi i64 [ %29, %19 ], [ 0, %30 ]
  ret i64 %.0
}